target datalayout = "e-m:e-p270:32:32-p271:32:32-p272:64:64-i64:64-i128:128-f80:128-n8:16:32:64-S128"
target triple = "x86_64-pc-linux-gnu"

%struct.AVFilterContext = type { ptr, ptr, ptr, ptr, ptr, i32, ptr, ptr, i32, ptr, ptr, i32, i32, ptr, ptr, ptr, ptr, i32, ptr, i32, i32 }
%struct.FilterLink = type { %struct.AVFilterLink, ptr, i64, i64, i32, i32, i64, i64, i64, i64, %struct.AVRational, ptr }
%struct.AVFilterLink = type { ptr, ptr, ptr, ptr, i32, i32, i32, i32, %struct.AVRational, i32, i32, i32, %struct.AVChannelLayout, %struct.AVRational, ptr, i32, %struct.AVFilterFormatsConfig, %struct.AVFilterFormatsConfig }
%struct.AVChannelLayout = type { i32, i32, %union.anon, ptr }
%union.anon = type { i64 }
%struct.AVFilterFormatsConfig = type { ptr, ptr, ptr, ptr, ptr }
%struct.AVRational = type { i32, i32 }
%struct.BufferSinkContext = type { ptr, i32, i32, ptr, i32, ptr, i32, ptr, i32, ptr, i32, ptr, i32, ptr, i32, ptr, i32, ptr, i32, ptr, i32, ptr, i32, ptr, i32, ptr, i32, ptr }

; Function Attrs: inlinehint nounwind uwtable
define internal ptr @ff_filter_link(ptr noundef %0) #1 {
  %2 = alloca ptr, align 8
  store ptr %0, ptr %2, align 8, !tbaa !25
  %3 = load ptr, ptr %2, align 8, !tbaa !25
  ret ptr %3
}

; Function Attrs: nounwind uwtable
define void @av_buffersink_set_frame_size(ptr noundef %0, i32 noundef %1) #0 {
  %3 = alloca ptr, align 8
  %4 = alloca i32, align 4
  %5 = alloca ptr, align 8
  %6 = alloca ptr, align 8
  store ptr %0, ptr %3, align 8, !tbaa !4
  store i32 %1, ptr %4, align 4, !tbaa !11
  call void @llvm.lifetime.start.p0(i64 8, ptr %5) #9
  %7 = load ptr, ptr %3, align 8, !tbaa !4
  %8 = getelementptr inbounds nuw %struct.AVFilterContext, ptr %7, i32 0, i32 9
  %9 = load ptr, ptr %8, align 8, !tbaa !37
  store ptr %9, ptr %5, align 8, !tbaa !38
  %10 = load i32, ptr %4, align 4, !tbaa !11
  %11 = load ptr, ptr %5, align 8, !tbaa !38
  %12 = getelementptr inbounds nuw %struct.BufferSinkContext, ptr %11, i32 0, i32 2
  store i32 %10, ptr %12, align 4, !tbaa !53
  %13 = load ptr, ptr %3, align 8, !tbaa !4
  %14 = getelementptr inbounds nuw %struct.AVFilterContext, ptr %13, i32 0, i32 4
  %15 = load ptr, ptr %14, align 8, !tbaa !13
  %16 = icmp ne ptr %15, null
  br i1 %16, label %17, label %38

17:                                               ; preds = %2
  %18 = load ptr, ptr %3, align 8, !tbaa !4
  %19 = getelementptr inbounds nuw %struct.AVFilterContext, ptr %18, i32 0, i32 4
  %20 = load ptr, ptr %19, align 8, !tbaa !13
  %21 = getelementptr inbounds ptr, ptr %20, i64 0
  %22 = load ptr, ptr %21, align 8, !tbaa !25
  %23 = icmp ne ptr %22, null
  br i1 %23, label %24, label %38

24:                                               ; preds = %17
  call void @llvm.lifetime.start.p0(i64 8, ptr %6) #9
  %25 = load ptr, ptr %3, align 8, !tbaa !4
  %26 = getelementptr inbounds nuw %struct.AVFilterContext, ptr %25, i32 0, i32 4
  %27 = load ptr, ptr %26, align 8, !tbaa !13
  %28 = getelementptr inbounds ptr, ptr %27, i64 0
  %29 = load ptr, ptr %28, align 8, !tbaa !25
  %30 = call ptr @ff_filter_link(ptr noundef %29)
  store ptr %30, ptr %6, align 8, !tbaa !54
  %31 = load ptr, ptr %5, align 8, !tbaa !38
  %32 = getelementptr inbounds nuw %struct.BufferSinkContext, ptr %31, i32 0, i32 2
  %33 = load i32, ptr %32, align 4, !tbaa !53
  %34 = load ptr, ptr %6, align 8, !tbaa !54
  %35 = getelementptr inbounds nuw %struct.FilterLink, ptr %34, i32 0, i32 5
  store i32 %33, ptr %35, align 4, !tbaa !56
  %36 = load ptr, ptr %6, align 8, !tbaa !54
  %37 = getelementptr inbounds nuw %struct.FilterLink, ptr %36, i32 0, i32 4
  store i32 %33, ptr %37, align 8, !tbaa !27
  call void @llvm.lifetime.end.p0(i64 8, ptr %6) #9
  br label %38

38:                                               ; preds = %24, %17, %2
  call void @llvm.lifetime.end.p0(i64 8, ptr %5) #9
  ret void
}