; Function Attrs: mustprogress nofree norecurse nosync nounwind willreturn memory(readwrite, inaccessiblemem: none) uwtable
define void @av_buffersink_set_frame_size(ptr noundef readonly captures(none) %0, i32 noundef %1) local_unnamed_addr #1 {
  %3 = getelementptr inbounds nuw i8, ptr %0, i64 72
  %4 = load ptr, ptr %3, align 8, !tbaa !33
  %5 = getelementptr inbounds nuw i8, ptr %4, i64 12
  store i32 %1, ptr %5, align 4, !tbaa !48
  %6 = getelementptr inbounds nuw i8, ptr %0, i64 32
  %7 = load ptr, ptr %6, align 8, !tbaa !4
  %.not = icmp eq ptr %7, null
  br i1 %.not, label %13, label %8

8:                                                ; preds = %2
  %9 = load ptr, ptr %7, align 8, !tbaa !20
  %.not9 = icmp eq ptr %9, null
  br i1 %.not9, label %13, label %10

10:                                               ; preds = %8
  %11 = getelementptr inbounds nuw i8, ptr %9, i64 228
  store i32 %1, ptr %11, align 4, !tbaa !49
  %12 = getelementptr inbounds nuw i8, ptr %9, i64 224
  store i32 %1, ptr %12, align 8, !tbaa !22
  br label %13

13:                                               ; preds = %10, %8, %2
  ret void
}